; ModuleID = '31/1566.c'
source_filename = "31/1566.c"
target datalayout = "e-m:e-p270:32:32-p271:32:32-p272:64:64-i64:64-f80:128-n8:16:32:64-S128"
target triple = "x86_64-pc-linux-gnu"

%struct.information = type { [50 x i8], %struct.information* }

@.str = private unnamed_addr constant [4 x i8] c"end\00", align 1
@.str.1 = private unnamed_addr constant [4 x i8] c"%s\0A\00", align 1

; Function Attrs: noinline nounwind uwtable
define dso_local %struct.information* @creat() #0 {
  %1 = alloca %struct.information*, align 8
  %2 = alloca %struct.information*, align 8
  %3 = alloca %struct.information*, align 8
  %4 = call noalias i8* @malloc(i64 100) #4
  %5 = bitcast i8* %4 to %struct.information*
  store %struct.information* %5, %struct.information** %3, align 8
  store %struct.information* %5, %struct.information** %2, align 8
  %6 = load %struct.information*, %struct.information** %2, align 8
  %7 = getelementptr inbounds %struct.information, %struct.information* %6, i32 0, i32 1
  store %struct.information* null, %struct.information** %7, align 8
  %8 = load %struct.information*, %struct.information** %2, align 8
  %9 = getelementptr inbounds %struct.information, %struct.information* %8, i32 0, i32 0
  %10 = getelementptr inbounds [50 x i8], [50 x i8]* %9, i64 0, i64 0
  %11 = call i32 (i8*, ...) bitcast (i32 (...)* @gets to i32 (i8*, ...)*)(i8* %10)
  br label %12

12:                                               ; preds = %18, %0
  %13 = load %struct.information*, %struct.information** %2, align 8
  %14 = getelementptr inbounds %struct.information, %struct.information* %13, i32 0, i32 0
  %15 = getelementptr inbounds [50 x i8], [50 x i8]* %14, i64 0, i64 0
  %16 = call i32 @strcmp(i8* %15, i8* getelementptr inbounds ([4 x i8], [4 x i8]* @.str, i64 0, i64 0)) #5
  %17 = icmp ne i32 %16, 0
  br i1 %17, label %18, label %29

18:                                               ; preds = %12
  %19 = load %struct.information*, %struct.information** %2, align 8
  store %struct.information* %19, %struct.information** %3, align 8
  %20 = call noalias i8* @malloc(i64 100) #4
  %21 = bitcast i8* %20 to %struct.information*
  store %struct.information* %21, %struct.information** %2, align 8
  %22 = load %struct.information*, %struct.information** %2, align 8
  %23 = getelementptr inbounds %struct.information, %struct.information* %22, i32 0, i32 0
  %24 = getelementptr inbounds [50 x i8], [50 x i8]* %23, i64 0, i64 0
  %25 = call i32 (i8*, ...) bitcast (i32 (...)* @gets to i32 (i8*, ...)*)(i8* %24)
  %26 = load %struct.information*, %struct.information** %3, align 8
  %27 = load %struct.information*, %struct.information** %2, align 8
  %28 = getelementptr inbounds %struct.information, %struct.information* %27, i32 0, i32 1
  store %struct.information* %26, %struct.information** %28, align 8
  br label %12

29:                                               ; preds = %12
  %30 = load %struct.information*, %struct.information** %3, align 8
  ret %struct.information* %30
}

; Function Attrs: nounwind
declare dso_local noalias i8* @malloc(i64) #1

declare dso_local i32 @gets(...) #2

; Function Attrs: nounwind readonly
declare dso_local i32 @strcmp(i8*, i8*) #3

; Function Attrs: noinline nounwind uwtable
define dso_local void @print(%struct.information* %0) #0 {
  %2 = alloca %struct.information*, align 8
  store %struct.information* %0, %struct.information** %2, align 8
  br label %3

3:                                                ; preds = %6, %1
  %4 = load %struct.information*, %struct.information** %2, align 8
  %5 = icmp ne %struct.information* %4, null
  br i1 %5, label %6, label %14

6:                                                ; preds = %3
  %7 = load %struct.information*, %struct.information** %2, align 8
  %8 = getelementptr inbounds %struct.information, %struct.information* %7, i32 0, i32 0
  %9 = getelementptr inbounds [50 x i8], [50 x i8]* %8, i64 0, i64 0
  %10 = call i32 (i8*, ...) @printf(i8* getelementptr inbounds ([4 x i8], [4 x i8]* @.str.1, i64 0, i64 0), i8* %9)
  %11 = load %struct.information*, %struct.information** %2, align 8
  %12 = getelementptr inbounds %struct.information, %struct.information* %11, i32 0, i32 1
  %13 = load %struct.information*, %struct.information** %12, align 8
  store %struct.information* %13, %struct.information** %2, align 8
  br label %3

14:                                               ; preds = %3
  ret void
}

declare dso_local i32 @printf(i8*, ...) #2

; Function Attrs: noinline nounwind uwtable
define dso_local i32 @main() #0 {
  %1 = alloca %struct.information*, align 8
  %2 = call %struct.information* @creat()
  store %struct.information* %2, %struct.information** %1, align 8
  %3 = load %struct.information*, %struct.information** %1, align 8
  call void @print(%struct.information* %3)
  ret i32 0
}


!llvm.module.flags = !{!0}
!llvm.ident = !{!1}

!0 = !{i32 1, !"wchar_size", i32 4}
!1 = !{!"clang version 10.0.0-4ubuntu1 "}
